target datalayout = "e-m:e-p270:32:32-p271:32:32-p272:64:64-i64:64-i128:128-f80:128-n8:16:32:64-S128"
target triple = "x86_64-pc-linux-gnu"

@st_str_reqs = internal global ptr @.str.517, align 8
@st_str_reqs_by_srv_addr = internal global ptr @.str.518, align 8
@st_node_reqs = internal global i32 -1, align 4
@st_str_reqs_by_http_host = internal global ptr @.str.515, align 8
@st_node_reqs_by_srv_addr = internal global i32 -1, align 4
@st_node_reqs_by_http_host = internal global i32 -1, align 4
@st_str_resps_by_srv_addr = internal global ptr @.str.519, align 8
@st_node_resps_by_srv_addr = internal global i32 -1, align 4

; Function Attrs: null_pointer_is_valid sspstrong uwtable
define internal void @http_reqs_stats_tree_init(ptr noundef %0) #0 {
  %2 = alloca ptr, align 8
  store ptr %0, ptr %2, align 8
  %3 = load ptr, ptr %2, align 8
  %4 = load ptr, ptr @st_str_reqs, align 8
  %5 = call i32 @stats_tree_create_node(ptr noundef %3, ptr noundef %4, i32 noundef 0, i32 noundef 0, i1 noundef zeroext true)
  store i32 %5, ptr @st_node_reqs, align 4
  %6 = load ptr, ptr %2, align 8
  %7 = load ptr, ptr @st_str_reqs_by_srv_addr, align 8
  %8 = load i32, ptr @st_node_reqs, align 4
  %9 = call i32 @stats_tree_create_node(ptr noundef %6, ptr noundef %7, i32 noundef %8, i32 noundef 0, i1 noundef zeroext true)
  store i32 %9, ptr @st_node_reqs_by_srv_addr, align 4
  %10 = load ptr, ptr %2, align 8
  %11 = load ptr, ptr @st_str_reqs_by_http_host, align 8
  %12 = load i32, ptr @st_node_reqs, align 4
  %13 = call i32 @stats_tree_create_node(ptr noundef %10, ptr noundef %11, i32 noundef %12, i32 noundef 0, i1 noundef zeroext true)
  store i32 %13, ptr @st_node_reqs_by_http_host, align 4
  %14 = load ptr, ptr %2, align 8
  %15 = load ptr, ptr @st_str_resps_by_srv_addr, align 8
  %16 = call i32 @stats_tree_create_node(ptr noundef %14, ptr noundef %15, i32 noundef 0, i32 noundef 0, i1 noundef zeroext true)
  store i32 %16, ptr @st_node_resps_by_srv_addr, align 4
  ret void
}