; Function Attrs: null_pointer_is_valid sspstrong uwtable
define internal void @http_reqs_stats_tree_init(ptr noundef %0) #0 {
  %2 = tail call i32 @stats_tree_create_node(ptr noundef %0, ptr noundef nonnull @.str.517, i32 noundef 0, i32 noundef 0, i1 noundef zeroext true)
  store i32 %2, ptr @st_node_reqs, align 4
  %3 = tail call i32 @stats_tree_create_node(ptr noundef %0, ptr noundef nonnull @.str.518, i32 noundef %2, i32 noundef 0, i1 noundef zeroext true)
  store i32 %3, ptr @st_node_reqs_by_srv_addr, align 4
  %4 = load i32, ptr @st_node_reqs, align 4
  %5 = tail call i32 @stats_tree_create_node(ptr noundef %0, ptr noundef nonnull @.str.515, i32 noundef %4, i32 noundef 0, i1 noundef zeroext true)
  store i32 %5, ptr @st_node_reqs_by_http_host, align 4
  %6 = tail call i32 @stats_tree_create_node(ptr noundef %0, ptr noundef nonnull @.str.519, i32 noundef 0, i32 noundef 0, i1 noundef zeroext true)
  store i32 %6, ptr @st_node_resps_by_srv_addr, align 4
  ret void
}